target datalayout = "e-m:e-p270:32:32-p271:32:32-p272:64:64-i64:64-i128:128-f80:128-n8:16:32:64-S128"
target triple = "x86_64-unknown-linux-gnu"

%"struct.node::AssertionInfo" = type { ptr, ptr, ptr }
%"class.node::crypto::ManagedEVPPKey" = type { %"class.node::MemoryRetainer", %"class.std::unique_ptr", %"class.std::shared_ptr" }
%"class.node::MemoryRetainer" = type { ptr }
%"class.std::unique_ptr" = type { %"struct.std::__uniq_ptr_data" }
%"struct.std::__uniq_ptr_data" = type { %"class.std::__uniq_ptr_impl" }
%"class.std::__uniq_ptr_impl" = type { %"class.std::tuple" }
%"class.std::tuple" = type { %"struct.std::_Tuple_impl" }
%"struct.std::_Tuple_impl" = type { %"struct.std::_Head_base.1" }
%"struct.std::_Head_base.1" = type { ptr }
%"class.std::shared_ptr" = type { %"class.std::__shared_ptr" }
%"class.std::__shared_ptr" = type { ptr, %"class.std::__shared_count" }
%"class.std::__shared_count" = type { ptr }
%"class.node::crypto::KeyObjectData" = type { %"class.node::MemoryRetainer", i32, %"class.node::crypto::ByteSource", %"class.node::crypto::ManagedEVPPKey" }
%"class.node::crypto::ByteSource" = type { ptr, ptr, i64 }

@_ZZNK4node6crypto13KeyObjectData16GetAsymmetricKeyEvE4args = internal constant %"struct.node::AssertionInfo" { ptr @.str.38, ptr @.str.39, ptr @.str.40 }, align 8
@_ZN4node6crypto14ManagedEVPPKeyC1ERKS1_ = dso_local unnamed_addr alias void (ptr, ptr), ptr @_ZN4node6crypto14ManagedEVPPKeyC2ERKS1_

; Function Attrs: mustprogress nounwind uwtable
define dso_local void @_ZNK4node6crypto13KeyObjectData16GetAsymmetricKeyEv(ptr noalias sret(%"class.node::crypto::ManagedEVPPKey") align 8 %agg.result, ptr noundef nonnull align 8 dereferenceable(72) %this) #4 align 2 {
entry:
  %result.ptr = alloca ptr, align 8
  %this.addr = alloca ptr, align 8
  store ptr %agg.result, ptr %result.ptr, align 8
  store ptr %this, ptr %this.addr, align 8
  %this1 = load ptr, ptr %this.addr, align 8
  br label %do.body

do.body:                                          ; preds = %entry
  %key_type_ = getelementptr inbounds %"class.node::crypto::KeyObjectData", ptr %this1, i32 0, i32 1
  %0 = load i32, ptr %key_type_, align 8
  %cmp = icmp ne i32 %0, 0
  %lnot = xor i1 %cmp, true
  %lnot2 = xor i1 %lnot, true
  %lnot3 = xor i1 %lnot2, true
  br i1 %lnot3, label %if.then, label %if.end

if.then:                                          ; preds = %do.body
  br label %do.body4

do.body4:                                         ; preds = %if.then
  call void @_ZN4node6AssertERKNS_13AssertionInfoE(ptr noundef nonnull align 8 dereferenceable(24) @_ZZNK4node6crypto13KeyObjectData16GetAsymmetricKeyEvE4args)
  call void @abort() #14
  unreachable

do.end:                                           ; No predecessors!
  br label %if.end

if.end:                                           ; preds = %do.end, %do.body
  br label %do.end5

do.end5:                                          ; preds = %if.end
  %asymmetric_key_ = getelementptr inbounds %"class.node::crypto::KeyObjectData", ptr %this1, i32 0, i32 3
  call void @_ZN4node6crypto14ManagedEVPPKeyC1ERKS1_(ptr noundef nonnull align 8 dereferenceable(32) %agg.result, ptr noundef nonnull align 8 dereferenceable(32) %asymmetric_key_)
  ret void
}