; Function Attrs: mustprogress nounwind uwtable
define dso_local void @_ZNK4node6crypto13KeyObjectData16GetAsymmetricKeyEv(ptr noalias sret(%"class.node::crypto::ManagedEVPPKey") align 8 %agg.result, ptr nocapture noundef nonnull readonly align 8 dereferenceable(72) %this) local_unnamed_addr #3 align 2 {
entry:
  %key_type_ = getelementptr inbounds i8, ptr %this, i64 8
  %0 = load i32, ptr %key_type_, align 8
  %cmp.not = icmp eq i32 %0, 0
  br i1 %cmp.not, label %do.body4, label %do.end5

do.body4:                                         ; preds = %entry
  tail call void @_ZN4node6AssertERKNS_13AssertionInfoE(ptr noundef nonnull align 8 dereferenceable(24) @_ZZNK4node6crypto13KeyObjectData16GetAsymmetricKeyEvE4args) #24
  tail call void @abort() #25
  unreachable

do.end5:                                          ; preds = %entry
  %asymmetric_key_ = getelementptr inbounds i8, ptr %this, i64 40
  store ptr getelementptr inbounds ({ [10 x ptr] }, ptr @_ZTVN4node6crypto14ManagedEVPPKeyE, i64 0, i32 0, i64 2), ptr %agg.result, align 8
  %pkey_.i = getelementptr inbounds i8, ptr %agg.result, i64 8
  tail call void @llvm.memset.p0.i64(ptr noundef nonnull align 8 dereferenceable(24) %pkey_.i, i8 0, i64 24, i1 false)
  %call.i = tail call noundef nonnull align 8 dereferenceable(32) ptr @_ZN4node6crypto14ManagedEVPPKeyaSERKS1_(ptr noundef nonnull align 8 dereferenceable(32) %agg.result, ptr noundef nonnull align 8 dereferenceable(32) %asymmetric_key_)
  ret void
}